; Function Attrs: nounwind uwtable
define dso_local void @jw_object_inline_begin_array(ptr noundef %0, ptr noundef %1) local_unnamed_addr #3 {
  tail call fastcc void @object_common(ptr noundef %0, ptr noundef %1)
  %3 = load i64, ptr %0, align 8, !tbaa !4
  %.not.i.i.i.i = icmp eq i64 %3, 0
  br i1 %.not.i.i.i.i, label %strbuf_avail.exit.thread.i.i.i, label %strbuf_avail.exit.i.i.i

strbuf_avail.exit.i.i.i:                          ; preds = %2
  %4 = getelementptr inbounds nuw i8, ptr %0, i64 8
  %5 = load i64, ptr %4, align 8, !tbaa !11
  %.neg.i.i.i = add i64 %5, 1
  %.not.i.i.i = icmp eq i64 %3, %.neg.i.i.i
  br i1 %.not.i.i.i, label %strbuf_avail.exit.thread.i.i.i, label %strbuf_addch.exit.i.i

strbuf_avail.exit.thread.i.i.i:                   ; preds = %strbuf_avail.exit.i.i.i, %2
  tail call void @strbuf_grow(ptr noundef nonnull %0, i64 noundef 1) #8
  %.phi.trans.insert.i.i.i = getelementptr inbounds nuw i8, ptr %0, i64 8
  %.pre.i.i.i = load i64, ptr %.phi.trans.insert.i.i.i, align 8, !tbaa !11
  %.pre7.i.i.i = add i64 %.pre.i.i.i, 1
  br label %strbuf_addch.exit.i.i

strbuf_addch.exit.i.i:                            ; preds = %strbuf_avail.exit.thread.i.i.i, %strbuf_avail.exit.i.i.i
  %.pre-phi.i.i.i = phi i64 [ %.pre7.i.i.i, %strbuf_avail.exit.thread.i.i.i ], [ %.neg.i.i.i, %strbuf_avail.exit.i.i.i ]
  %6 = phi i64 [ %.pre.i.i.i, %strbuf_avail.exit.thread.i.i.i ], [ %5, %strbuf_avail.exit.i.i.i ]
  %7 = getelementptr inbounds nuw i8, ptr %0, i64 16
  %8 = load ptr, ptr %7, align 8, !tbaa !12
  %9 = getelementptr inbounds nuw i8, ptr %0, i64 8
  store i64 %.pre-phi.i.i.i, ptr %9, align 8, !tbaa !11
  %10 = getelementptr inbounds nuw i8, ptr %8, i64 %6
  store i8 91, ptr %10, align 1, !tbaa !13
  %11 = load ptr, ptr %7, align 8, !tbaa !12
  %12 = load i64, ptr %9, align 8, !tbaa !11
  %13 = getelementptr inbounds nuw i8, ptr %11, i64 %12
  store i8 0, ptr %13, align 1, !tbaa !13
  %14 = getelementptr inbounds nuw i8, ptr %0, i64 24
  %15 = load i64, ptr %14, align 8, !tbaa !4
  %.not.i.i6.i.i = icmp eq i64 %15, 0
  br i1 %.not.i.i6.i.i, label %strbuf_avail.exit.thread.i11.i.i, label %strbuf_avail.exit.i7.i.i

strbuf_avail.exit.i7.i.i:                         ; preds = %strbuf_addch.exit.i.i
  %16 = getelementptr inbounds nuw i8, ptr %0, i64 32
  %17 = load i64, ptr %16, align 8, !tbaa !11
  %.neg.i8.i.i = add i64 %17, 1
  %.not.i9.i.i = icmp eq i64 %15, %.neg.i8.i.i
  br i1 %.not.i9.i.i, label %strbuf_avail.exit.thread.i11.i.i, label %jw_array_begin.exit

strbuf_avail.exit.thread.i11.i.i:                 ; preds = %strbuf_avail.exit.i7.i.i, %strbuf_addch.exit.i.i
  tail call void @strbuf_grow(ptr noundef nonnull %14, i64 noundef 1) #8
  %.phi.trans.insert.i12.i.i = getelementptr inbounds nuw i8, ptr %0, i64 32
  %.pre.i13.i.i = load i64, ptr %.phi.trans.insert.i12.i.i, align 8, !tbaa !11
  %.pre7.i14.i.i = add i64 %.pre.i13.i.i, 1
  br label %jw_array_begin.exit

jw_array_begin.exit:                              ; preds = %strbuf_avail.exit.i7.i.i, %strbuf_avail.exit.thread.i11.i.i
  %.pre-phi.i10.i.i = phi i64 [ %.pre7.i14.i.i, %strbuf_avail.exit.thread.i11.i.i ], [ %.neg.i8.i.i, %strbuf_avail.exit.i7.i.i ]
  %18 = phi i64 [ %.pre.i13.i.i, %strbuf_avail.exit.thread.i11.i.i ], [ %17, %strbuf_avail.exit.i7.i.i ]
  %19 = getelementptr inbounds nuw i8, ptr %0, i64 48
  %20 = getelementptr inbounds nuw i8, ptr %0, i64 40
  %21 = load ptr, ptr %20, align 8, !tbaa !12
  %22 = getelementptr inbounds nuw i8, ptr %0, i64 32
  store i64 %.pre-phi.i10.i.i, ptr %22, align 8, !tbaa !11
  %23 = getelementptr inbounds nuw i8, ptr %21, i64 %18
  store i8 91, ptr %23, align 1, !tbaa !13
  %24 = load ptr, ptr %20, align 8, !tbaa !12
  %25 = load i64, ptr %22, align 8, !tbaa !11
  %26 = getelementptr inbounds nuw i8, ptr %24, i64 %25
  store i8 0, ptr %26, align 1, !tbaa !13
  %27 = load i8, ptr %19, align 8
  %28 = and i8 %27, -2
  store i8 %28, ptr %19, align 8
  ret void
}